target datalayout = "e-m:e-p270:32:32-p271:32:32-p272:64:64-i64:64-i128:128-f80:128-n8:16:32:64-S128"
target triple = "x86_64-pc-linux-gnu"

%struct.FunctionCallInfoBaseData = type { ptr, ptr, ptr, i32, i8, i16, [0 x %struct.NullableDatum] }
%struct.NullableDatum = type { i64, i8 }
%struct.FullTransactionId = type { i64 }

; Function Attrs: inlinehint nounwind uwtable
define internal i64 @FullTransactionIdFromU64(i64 noundef %0) #2 {
  %2 = alloca %struct.FullTransactionId, align 8
  %3 = alloca i64, align 8
  store i64 %0, ptr %3, align 8
  %4 = load i64, ptr %3, align 8
  %5 = getelementptr inbounds nuw %struct.FullTransactionId, ptr %2, i32 0, i32 0
  store i64 %4, ptr %5, align 8
  %6 = getelementptr inbounds nuw %struct.FullTransactionId, ptr %2, i32 0, i32 0
  %7 = load i64, ptr %6, align 8
  ret i64 %7
}

; Function Attrs: inlinehint nounwind uwtable
define internal i64 @DatumGetUInt64(i64 noundef %0) #2 {
  %2 = alloca i64, align 8
  store i64 %0, ptr %2, align 8
  %3 = load i64, ptr %2, align 8
  ret i64 %3
}

; Function Attrs: inlinehint nounwind uwtable
define internal i64 @BoolGetDatum(i1 noundef zeroext %0) #2 {
  %2 = alloca i8, align 1
  %3 = zext i1 %0 to i8
  store i8 %3, ptr %2, align 1
  %4 = load i8, ptr %2, align 1, !range !4, !noundef !5
  %5 = trunc i8 %4 to i1
  %6 = select i1 %5, i32 1, i32 0
  %7 = sext i32 %6 to i64
  ret i64 %7
}

; Function Attrs: inlinehint nounwind uwtable
define internal i64 @DatumGetFullTransactionId(i64 noundef %0) #2 {
  %2 = alloca %struct.FullTransactionId, align 8
  %3 = alloca i64, align 8
  store i64 %0, ptr %3, align 8
  %4 = load i64, ptr %3, align 8
  %5 = call i64 @DatumGetUInt64(i64 noundef %4)
  %6 = call i64 @FullTransactionIdFromU64(i64 noundef %5)
  %7 = getelementptr inbounds nuw %struct.FullTransactionId, ptr %2, i32 0, i32 0
  store i64 %6, ptr %7, align 8
  %8 = getelementptr inbounds nuw %struct.FullTransactionId, ptr %2, i32 0, i32 0
  %9 = load i64, ptr %8, align 8
  ret i64 %9
}

; Function Attrs: nounwind uwtable
define dso_local i64 @xid8le(ptr noundef %0) #0 {
  %2 = alloca ptr, align 8
  %3 = alloca %struct.FullTransactionId, align 8
  %4 = alloca %struct.FullTransactionId, align 8
  store ptr %0, ptr %2, align 8
  call void @llvm.lifetime.start.p0(i64 8, ptr %3) #6
  %5 = load ptr, ptr %2, align 8
  %6 = getelementptr inbounds nuw %struct.FunctionCallInfoBaseData, ptr %5, i32 0, i32 6
  %7 = getelementptr inbounds [0 x %struct.NullableDatum], ptr %6, i64 0, i64 0
  %8 = getelementptr inbounds nuw %struct.NullableDatum, ptr %7, i32 0, i32 0
  %9 = load i64, ptr %8, align 8
  %10 = call i64 @DatumGetFullTransactionId(i64 noundef %9)
  %11 = getelementptr inbounds nuw %struct.FullTransactionId, ptr %3, i32 0, i32 0
  store i64 %10, ptr %11, align 8
  call void @llvm.lifetime.start.p0(i64 8, ptr %4) #6
  %12 = load ptr, ptr %2, align 8
  %13 = getelementptr inbounds nuw %struct.FunctionCallInfoBaseData, ptr %12, i32 0, i32 6
  %14 = getelementptr inbounds [0 x %struct.NullableDatum], ptr %13, i64 0, i64 1
  %15 = getelementptr inbounds nuw %struct.NullableDatum, ptr %14, i32 0, i32 0
  %16 = load i64, ptr %15, align 8
  %17 = call i64 @DatumGetFullTransactionId(i64 noundef %16)
  %18 = getelementptr inbounds nuw %struct.FullTransactionId, ptr %4, i32 0, i32 0
  store i64 %17, ptr %18, align 8
  %19 = getelementptr inbounds nuw %struct.FullTransactionId, ptr %3, i32 0, i32 0
  %20 = load i64, ptr %19, align 8
  %21 = getelementptr inbounds nuw %struct.FullTransactionId, ptr %4, i32 0, i32 0
  %22 = load i64, ptr %21, align 8
  %23 = icmp ule i64 %20, %22
  %24 = call i64 @BoolGetDatum(i1 noundef zeroext %23)
  call void @llvm.lifetime.end.p0(i64 8, ptr %4) #6
  call void @llvm.lifetime.end.p0(i64 8, ptr %3) #6
  ret i64 %24
}